target datalayout = "e-m:e-p270:32:32-p271:32:32-p272:64:64-i64:64-i128:128-f80:128-n8:16:32:64-S128"
target triple = "x86_64-pc-linux-gnu"

%struct.redisServer = type { i32, i64, ptr, ptr, ptr, i32, i32, i32, i32, i32, ptr, ptr, ptr, ptr, ptr, i32, i32, i32, i32, i64, i32, i32, i32, i32, ptr, i32, i32, [41 x i8], i32, i64, i32, i32, i32, ptr, ptr, i32, i32, i64, ptr, ptr, ptr, ptr, [2 x i32], i32, i32, i32, i32, i32, i32, [16 x ptr], i32, ptr, ptr, i32, [8 x %struct.connListener], i32, %struct.connListener, ptr, ptr, ptr, ptr, ptr, ptr, ptr, ptr, ptr, ptr, i32, ptr, i32, ptr, [3 x %struct.pause_event], [256 x i8], ptr, i64, i32, i32, [128 x i32], i32, i32, i64, i32, i32, i32, i32, i32, i64, i64, i64, i64, i64, i64, i64, i64, i64, i64, double, i64, i64, i64, i64, i64, i64, i64, i64, i64, i64, i64, i64, i64, i64, i64, i64, i64, i64, i64, i64, i64, double, i64, i64, i64, i64, i64, ptr, i64, i64, i64, %struct.malloc_stats, i64, i64, i64, i64, i64, i64, i64, i64, i64, i64, i64, i64, double, [4 x i64], i64, i64, i64, i64, [128 x i64], [128 x i64], i64, i64, [7 x %struct.anon], i64, i64, i64, i64, i64, i64, [4 x %struct.durationStats], i32, i32, i32, i32, i32, i32, i32, i32, i32, i32, i32, i32, i64, i32, i32, i32, i32, i64, i64, i32, i32, i32, i32, i32, ptr, [3 x %struct.clientBufferLimitsConfig], i32, i32, i32, ptr, i32, i32, i32, i32, i32, i32, ptr, ptr, i32, i32, i64, i64, i64, i64, i64, i32, i32, ptr, i32, i32, i64, i64, i64, i64, i64, i32, i32, i64, i32, i32, i32, i32, i32, i32, i32, i32, ptr, i32, i64, i64, i64, i64, i32, ptr, i32, ptr, i32, i32, i32, i64, i64, i64, i64, i32, i32, i32, i32, i32, i32, ptr, i32, i32, ptr, i32, i32, i32, [2 x i32], i32, %struct.redisOpArray, i32, ptr, i32, ptr, i32, i32, i32, i32, i32, i32, i32, [41 x i8], [41 x i8], i64, i64, i64, i64, i32, i32, ptr, i64, i64, %struct.replDataBuf, i64, i64, i32, i32, i32, i32, i32, i32, i32, i32, i32, i64, ptr, i64, ptr, ptr, ptr, i32, i32, ptr, ptr, i32, i32, i32, i64, i64, i64, i64, ptr, ptr, i32, ptr, i64, i32, i32, i32, i64, i32, i32, i32, i32, ptr, i32, i32, [41 x i8], i64, i32, ptr, i32, i32, i64, i64, i32, i32, i32, i32, i32, i64, [3 x i32], i32, i32, i32, [10 x i32], ptr, ptr, i32, i64, ptr, ptr, i32, i32, i32, i32, i64, i64, i64, i64, i64, i64, i64, i64, i64, i64, i32, i32, i64, i64, i32, i64, i64, i64, i64, i64, ptr, ptr, i32, ptr, i32, i32, i32, i32, i64, i64, ptr, ptr, i32, i32, i32, i32, i32, ptr, ptr, ptr, i32, i32, i32, i32, i32, i32, i32, i64, i32, i32, i64, i32, i32, i32, i32, i32, i32, i32, i64, ptr, ptr, i64, ptr, i32, %struct.aclInfo, i32, i64, i32, i32, i32, %struct.redisTLSContextConfig, ptr, ptr, ptr, ptr, ptr, i64, i32, ptr, i32, i32, i32, i64, i32, ptr }
%struct.connListener = type { [16 x i32], i32, ptr, i32, i32, ptr, ptr }
%struct.pause_event = type { i32, i64 }
%struct.malloc_stats = type { i64, i64, i64, i64, i64, i64, i64, i64, i64, i64, i64 }
%struct.anon = type { i64, i64, [16 x i64], i32 }
%struct.durationStats = type { i64, i64, i64 }
%struct.clientBufferLimitsConfig = type { i64, i64, i64 }
%struct.redisOpArray = type { ptr, i32, i32 }
%struct.replDataBuf = type { ptr, i64, i64, i64, i64 }
%struct.aclInfo = type { i64, i64, i64, i64 }
%struct.redisTLSContextConfig = type { ptr, ptr, ptr, ptr, ptr, ptr, ptr, ptr, ptr, ptr, ptr, ptr, i32, i32, i32, i32 }
%struct.sdshdr8 = type { i8, i8, i8, [0 x i8] }
%struct.sdshdr16 = type <{ i16, i16, i8, [0 x i8] }>
%struct.sdshdr32 = type <{ i32, i32, i8, [0 x i8] }>
%struct.sdshdr64 = type <{ i64, i64, i8, [0 x i8] }>
%struct.redisObject = type { i32, i32, ptr }
%struct.migrateCachedSocket = type { ptr, i64, i64 }
%struct.dict = type { ptr, [2 x ptr], [2 x i64], i64, i16, [2 x i8], i16, [0 x ptr] }
%struct.connection = type { ptr, i32, i32, i32, i16, i16, i16, ptr, ptr, ptr, ptr, ptr }
%struct.ConnectionType = type { ptr, ptr, ptr, ptr, ptr, ptr, ptr, ptr, ptr, ptr, ptr, ptr, ptr, ptr, ptr, ptr, ptr, ptr, ptr, ptr, ptr, ptr, ptr, ptr, ptr, ptr, ptr, ptr, ptr, ptr }

@server = external global %struct.redisServer, align 8
@.str.14 = private unnamed_addr constant [2 x i8] c":\00", align 1
@.str.15 = private unnamed_addr constant [49 x i8] c"-IOERR error or timeout connecting to the client\00", align 1

; Function Attrs: inlinehint nounwind uwtable
define internal i32 @connBlockingConnect(ptr noundef %0, ptr noundef %1, i32 noundef %2, i64 noundef %3) #5 {
  %5 = alloca ptr, align 8
  %6 = alloca ptr, align 8
  %7 = alloca i32, align 4
  %8 = alloca i64, align 8
  store ptr %0, ptr %5, align 8, !tbaa !90
  store ptr %1, ptr %6, align 8, !tbaa !5
  store i32 %2, ptr %7, align 4, !tbaa !10
  store i64 %3, ptr %8, align 8, !tbaa !67
  %9 = load ptr, ptr %5, align 8, !tbaa !90
  %10 = getelementptr inbounds nuw %struct.connection, ptr %9, i32 0, i32 0
  %11 = load ptr, ptr %10, align 8, !tbaa !92
  %12 = getelementptr inbounds nuw %struct.ConnectionType, ptr %11, i32 0, i32 14
  %13 = load ptr, ptr %12, align 8, !tbaa !99
  %14 = load ptr, ptr %5, align 8, !tbaa !90
  %15 = load ptr, ptr %6, align 8, !tbaa !5
  %16 = load i32, ptr %7, align 4, !tbaa !10
  %17 = load i64, ptr %8, align 8, !tbaa !67
  %18 = call i32 %13(ptr noundef %14, ptr noundef %15, i32 noundef %16, i64 noundef %17)
  ret i32 %18
}

; Function Attrs: inlinehint nounwind willreturn memory(read) uwtable
define available_externally i32 @atoi(ptr noundef nonnull %0) #7 {
  %2 = alloca ptr, align 8
  store ptr %0, ptr %2, align 8, !tbaa !5
  %3 = load ptr, ptr %2, align 8, !tbaa !5
  %4 = call i64 @strtol(ptr noundef %3, ptr noundef null, i32 noundef 10) #14
  %5 = trunc i64 %4 to i32
  ret i32 %5
}

; Function Attrs: inlinehint nounwind uwtable
define internal ptr @connCreate(ptr noundef %0, ptr noundef %1) #5 {
  %3 = alloca ptr, align 8
  %4 = alloca ptr, align 8
  store ptr %0, ptr %3, align 8, !tbaa !96
  store ptr %1, ptr %4, align 8, !tbaa !97
  %5 = load ptr, ptr %4, align 8, !tbaa !97
  %6 = getelementptr inbounds nuw %struct.ConnectionType, ptr %5, i32 0, i32 9
  %7 = load ptr, ptr %6, align 8, !tbaa !98
  %8 = load ptr, ptr %3, align 8, !tbaa !96
  %9 = call ptr %7(ptr noundef %8)
  ret ptr %9
}

; Function Attrs: nounwind uwtable
define dso_local ptr @connTypeOfCluster() #0 {
  %1 = alloca ptr, align 8
  %2 = load i32, ptr getelementptr inbounds nuw (%struct.redisServer, ptr @server, i32 0, i32 421), align 8, !tbaa !15
  %3 = icmp ne i32 %2, 0
  br i1 %3, label %4, label %6

4:                                                ; preds = %0
  %5 = call ptr @connectionTypeTls()
  store ptr %5, ptr %1, align 8
  br label %8

6:                                                ; preds = %0
  %7 = call ptr @connectionTypeTcp()
  store ptr %7, ptr %1, align 8
  br label %8

8:                                                ; preds = %6, %4
  %9 = load ptr, ptr %1, align 8
  ret ptr %9
}

; Function Attrs: inlinehint nounwind uwtable
define internal void @connClose(ptr noundef %0) #5 {
  %2 = alloca ptr, align 8
  store ptr %0, ptr %2, align 8, !tbaa !90
  %3 = load ptr, ptr %2, align 8, !tbaa !90
  %4 = getelementptr inbounds nuw %struct.connection, ptr %3, i32 0, i32 0
  %5 = load ptr, ptr %4, align 8, !tbaa !92
  %6 = getelementptr inbounds nuw %struct.ConnectionType, ptr %5, i32 0, i32 12
  %7 = load ptr, ptr %6, align 8, !tbaa !94
  %8 = load ptr, ptr %2, align 8, !tbaa !90
  call void %7(ptr noundef %8)
  ret void
}

; Function Attrs: inlinehint nounwind uwtable
define internal i64 @sdslen(ptr noundef %0) #5 {
  %2 = alloca i64, align 8
  %3 = alloca ptr, align 8
  %4 = alloca i8, align 1
  %5 = alloca i32, align 4
  store ptr %0, ptr %3, align 8, !tbaa !5
  call void @llvm.lifetime.start.p0(i64 1, ptr %4) #14
  %6 = load ptr, ptr %3, align 8, !tbaa !5
  %7 = getelementptr inbounds i8, ptr %6, i64 -1
  %8 = load i8, ptr %7, align 1, !tbaa !12
  store i8 %8, ptr %4, align 1, !tbaa !12
  %9 = load i8, ptr %4, align 1, !tbaa !12
  %10 = zext i8 %9 to i32
  %11 = and i32 %10, 7
  switch i32 %11, label %40 [
    i32 0, label %12
    i32 1, label %17
    i32 2, label %23
    i32 3, label %29
    i32 4, label %35
  ]

12:                                               ; preds = %1
  %13 = load i8, ptr %4, align 1, !tbaa !12
  %14 = zext i8 %13 to i32
  %15 = ashr i32 %14, 3
  %16 = sext i32 %15 to i64
  store i64 %16, ptr %2, align 8
  store i32 1, ptr %5, align 4
  br label %41

17:                                               ; preds = %1
  %18 = load ptr, ptr %3, align 8, !tbaa !5
  %19 = getelementptr inbounds i8, ptr %18, i64 -3
  %20 = getelementptr inbounds nuw %struct.sdshdr8, ptr %19, i32 0, i32 0
  %21 = load i8, ptr %20, align 1, !tbaa !12
  %22 = zext i8 %21 to i64
  store i64 %22, ptr %2, align 8
  store i32 1, ptr %5, align 4
  br label %41

23:                                               ; preds = %1
  %24 = load ptr, ptr %3, align 8, !tbaa !5
  %25 = getelementptr inbounds i8, ptr %24, i64 -5
  %26 = getelementptr inbounds nuw %struct.sdshdr16, ptr %25, i32 0, i32 0
  %27 = load i16, ptr %26, align 1, !tbaa !48
  %28 = zext i16 %27 to i64
  store i64 %28, ptr %2, align 8
  store i32 1, ptr %5, align 4
  br label %41

29:                                               ; preds = %1
  %30 = load ptr, ptr %3, align 8, !tbaa !5
  %31 = getelementptr inbounds i8, ptr %30, i64 -9
  %32 = getelementptr inbounds nuw %struct.sdshdr32, ptr %31, i32 0, i32 0
  %33 = load i32, ptr %32, align 1, !tbaa !10
  %34 = zext i32 %33 to i64
  store i64 %34, ptr %2, align 8
  store i32 1, ptr %5, align 4
  br label %41

35:                                               ; preds = %1
  %36 = load ptr, ptr %3, align 8, !tbaa !5
  %37 = getelementptr inbounds i8, ptr %36, i64 -17
  %38 = getelementptr inbounds nuw %struct.sdshdr64, ptr %37, i32 0, i32 0
  %39 = load i64, ptr %38, align 1, !tbaa !47
  store i64 %39, ptr %2, align 8
  store i32 1, ptr %5, align 4
  br label %41

40:                                               ; preds = %1
  store i64 0, ptr %2, align 8
  store i32 1, ptr %5, align 4
  br label %41

41:                                               ; preds = %40, %35, %29, %23, %17, %12
  call void @llvm.lifetime.end.p0(i64 1, ptr %4) #14
  %42 = load i64, ptr %2, align 8
  ret i64 %42
}

; Function Attrs: nounwind uwtable
define dso_local ptr @migrateGetSocket(ptr noundef %0, ptr noundef %1, ptr noundef %2, i64 noundef %3) #0 {
  %5 = alloca ptr, align 8
  %6 = alloca ptr, align 8
  %7 = alloca ptr, align 8
  %8 = alloca ptr, align 8
  %9 = alloca i64, align 8
  %10 = alloca ptr, align 8
  %11 = alloca ptr, align 8
  %12 = alloca ptr, align 8
  %13 = alloca i32, align 4
  %14 = alloca ptr, align 8
  store ptr %0, ptr %6, align 8, !tbaa !53
  store ptr %1, ptr %7, align 8, !tbaa !45
  store ptr %2, ptr %8, align 8, !tbaa !45
  store i64 %3, ptr %9, align 8, !tbaa !47
  call void @llvm.lifetime.start.p0(i64 8, ptr %10) #14
  call void @llvm.lifetime.start.p0(i64 8, ptr %11) #14
  %15 = call ptr @sdsempty()
  store ptr %15, ptr %11, align 8, !tbaa !5
  call void @llvm.lifetime.start.p0(i64 8, ptr %12) #14
  %16 = load ptr, ptr %11, align 8, !tbaa !5
  %17 = load ptr, ptr %7, align 8, !tbaa !45
  %18 = getelementptr inbounds nuw %struct.redisObject, ptr %17, i32 0, i32 2
  %19 = load ptr, ptr %18, align 8, !tbaa !69
  %20 = load ptr, ptr %7, align 8, !tbaa !45
  %21 = getelementptr inbounds nuw %struct.redisObject, ptr %20, i32 0, i32 2
  %22 = load ptr, ptr %21, align 8, !tbaa !69
  %23 = call i64 @sdslen(ptr noundef %22)
  %24 = call ptr @sdscatlen(ptr noundef %16, ptr noundef %19, i64 noundef %23)
  store ptr %24, ptr %11, align 8, !tbaa !5
  %25 = load ptr, ptr %11, align 8, !tbaa !5
  %26 = call ptr @sdscatlen(ptr noundef %25, ptr noundef @.str.14, i64 noundef 1)
  store ptr %26, ptr %11, align 8, !tbaa !5
  %27 = load ptr, ptr %11, align 8, !tbaa !5
  %28 = load ptr, ptr %8, align 8, !tbaa !45
  %29 = getelementptr inbounds nuw %struct.redisObject, ptr %28, i32 0, i32 2
  %30 = load ptr, ptr %29, align 8, !tbaa !69
  %31 = load ptr, ptr %8, align 8, !tbaa !45
  %32 = getelementptr inbounds nuw %struct.redisObject, ptr %31, i32 0, i32 2
  %33 = load ptr, ptr %32, align 8, !tbaa !69
  %34 = call i64 @sdslen(ptr noundef %33)
  %35 = call ptr @sdscatlen(ptr noundef %27, ptr noundef %30, i64 noundef %34)
  store ptr %35, ptr %11, align 8, !tbaa !5
  %36 = load ptr, ptr getelementptr inbounds nuw (%struct.redisServer, ptr @server, i32 0, i32 73), align 8, !tbaa !82
  %37 = load ptr, ptr %11, align 8, !tbaa !5
  %38 = call ptr @dictFetchValue(ptr noundef %36, ptr noundef %37)
  store ptr %38, ptr %12, align 8, !tbaa !83
  %39 = load ptr, ptr %12, align 8, !tbaa !83
  %40 = icmp ne ptr %39, null
  br i1 %40, label %41, label %47

41:                                               ; preds = %4
  %42 = load ptr, ptr %11, align 8, !tbaa !5
  call void @sdsfree(ptr noundef %42)
  %43 = load atomic i64, ptr getelementptr inbounds nuw (%struct.redisServer, ptr @server, i32 0, i32 366) seq_cst, align 8, !tbaa !85
  %44 = load ptr, ptr %12, align 8, !tbaa !83
  %45 = getelementptr inbounds nuw %struct.migrateCachedSocket, ptr %44, i32 0, i32 2
  store i64 %43, ptr %45, align 8, !tbaa !86
  %46 = load ptr, ptr %12, align 8, !tbaa !83
  store ptr %46, ptr %5, align 8
  store i32 1, ptr %13, align 4
  br label %107

47:                                               ; preds = %4
  %48 = load ptr, ptr getelementptr inbounds nuw (%struct.redisServer, ptr @server, i32 0, i32 73), align 8, !tbaa !82
  %49 = getelementptr inbounds nuw %struct.dict, ptr %48, i32 0, i32 2
  %50 = getelementptr inbounds [2 x i64], ptr %49, i64 0, i64 0
  %51 = load i64, ptr %50, align 8, !tbaa !47
  %52 = load ptr, ptr getelementptr inbounds nuw (%struct.redisServer, ptr @server, i32 0, i32 73), align 8, !tbaa !82
  %53 = getelementptr inbounds nuw %struct.dict, ptr %52, i32 0, i32 2
  %54 = getelementptr inbounds [2 x i64], ptr %53, i64 0, i64 1
  %55 = load i64, ptr %54, align 8, !tbaa !47
  %56 = add i64 %51, %55
  %57 = icmp eq i64 %56, 64
  br i1 %57, label %58, label %71

58:                                               ; preds = %47
  call void @llvm.lifetime.start.p0(i64 8, ptr %14) #14
  %59 = load ptr, ptr getelementptr inbounds nuw (%struct.redisServer, ptr @server, i32 0, i32 73), align 8, !tbaa !82
  %60 = call ptr @dictGetRandomKey(ptr noundef %59)
  store ptr %60, ptr %14, align 8, !tbaa !80
  %61 = load ptr, ptr %14, align 8, !tbaa !80
  %62 = call ptr @dictGetVal(ptr noundef %61)
  store ptr %62, ptr %12, align 8, !tbaa !83
  %63 = load ptr, ptr %12, align 8, !tbaa !83
  %64 = getelementptr inbounds nuw %struct.migrateCachedSocket, ptr %63, i32 0, i32 0
  %65 = load ptr, ptr %64, align 8, !tbaa !88
  call void @connClose(ptr noundef %65)
  %66 = load ptr, ptr %12, align 8, !tbaa !83
  call void @zfree(ptr noundef %66)
  %67 = load ptr, ptr getelementptr inbounds nuw (%struct.redisServer, ptr @server, i32 0, i32 73), align 8, !tbaa !82
  %68 = load ptr, ptr %14, align 8, !tbaa !80
  %69 = call ptr @dictGetKey(ptr noundef %68)
  %70 = call i32 @dictDelete(ptr noundef %67, ptr noundef %69)
  call void @llvm.lifetime.end.p0(i64 8, ptr %14) #14
  br label %71

71:                                               ; preds = %58, %47
  %72 = load ptr, ptr getelementptr inbounds nuw (%struct.redisServer, ptr @server, i32 0, i32 13), align 8, !tbaa !89
  %73 = call ptr @connTypeOfCluster()
  %74 = call ptr @connCreate(ptr noundef %72, ptr noundef %73)
  store ptr %74, ptr %10, align 8, !tbaa !90
  %75 = load ptr, ptr %10, align 8, !tbaa !90
  %76 = load ptr, ptr %7, align 8, !tbaa !45
  %77 = getelementptr inbounds nuw %struct.redisObject, ptr %76, i32 0, i32 2
  %78 = load ptr, ptr %77, align 8, !tbaa !69
  %79 = load ptr, ptr %8, align 8, !tbaa !45
  %80 = getelementptr inbounds nuw %struct.redisObject, ptr %79, i32 0, i32 2
  %81 = load ptr, ptr %80, align 8, !tbaa !69
  %82 = call i32 @atoi(ptr noundef %81) #16
  %83 = load i64, ptr %9, align 8, !tbaa !47
  %84 = call i32 @connBlockingConnect(ptr noundef %75, ptr noundef %78, i32 noundef %82, i64 noundef %83)
  %85 = icmp ne i32 %84, 0
  br i1 %85, label %86, label %90

86:                                               ; preds = %71
  %87 = load ptr, ptr %6, align 8, !tbaa !53
  call void @addReplyError(ptr noundef %87, ptr noundef @.str.15)
  %88 = load ptr, ptr %10, align 8, !tbaa !90
  call void @connClose(ptr noundef %88)
  %89 = load ptr, ptr %11, align 8, !tbaa !5
  call void @sdsfree(ptr noundef %89)
  store ptr null, ptr %5, align 8
  store i32 1, ptr %13, align 4
  br label %107

90:                                               ; preds = %71
  %91 = load ptr, ptr %10, align 8, !tbaa !90
  %92 = call i32 @connEnableTcpNoDelay(ptr noundef %91)
  %93 = call noalias ptr @zmalloc(i64 noundef 24) #17
  store ptr %93, ptr %12, align 8, !tbaa !83
  %94 = load ptr, ptr %10, align 8, !tbaa !90
  %95 = load ptr, ptr %12, align 8, !tbaa !83
  %96 = getelementptr inbounds nuw %struct.migrateCachedSocket, ptr %95, i32 0, i32 0
  store ptr %94, ptr %96, align 8, !tbaa !88
  %97 = load ptr, ptr %12, align 8, !tbaa !83
  %98 = getelementptr inbounds nuw %struct.migrateCachedSocket, ptr %97, i32 0, i32 1
  store i64 -1, ptr %98, align 8, !tbaa !91
  %99 = load atomic i64, ptr getelementptr inbounds nuw (%struct.redisServer, ptr @server, i32 0, i32 366) seq_cst, align 8, !tbaa !85
  %100 = load ptr, ptr %12, align 8, !tbaa !83
  %101 = getelementptr inbounds nuw %struct.migrateCachedSocket, ptr %100, i32 0, i32 2
  store i64 %99, ptr %101, align 8, !tbaa !86
  %102 = load ptr, ptr getelementptr inbounds nuw (%struct.redisServer, ptr @server, i32 0, i32 73), align 8, !tbaa !82
  %103 = load ptr, ptr %11, align 8, !tbaa !5
  %104 = load ptr, ptr %12, align 8, !tbaa !83
  %105 = call i32 @dictAdd(ptr noundef %102, ptr noundef %103, ptr noundef %104)
  %106 = load ptr, ptr %12, align 8, !tbaa !83
  store ptr %106, ptr %5, align 8
  store i32 1, ptr %13, align 4
  br label %107

107:                                              ; preds = %90, %86, %41
  call void @llvm.lifetime.end.p0(i64 8, ptr %12) #14
  call void @llvm.lifetime.end.p0(i64 8, ptr %11) #14
  call void @llvm.lifetime.end.p0(i64 8, ptr %10) #14
  %108 = load ptr, ptr %5, align 8
  ret ptr %108
}