; Function Attrs: nounwind uwtable
define dso_local ptr @migrateGetSocket(ptr noundef %0, ptr noundef readonly captures(none) %1, ptr noundef readonly captures(none) %2, i64 noundef %3) local_unnamed_addr #0 {
  %5 = tail call ptr @sdsempty() #16
  %6 = getelementptr inbounds nuw i8, ptr %1, i64 8
  %7 = load ptr, ptr %6, align 8, !tbaa !64
  %8 = getelementptr inbounds i8, ptr %7, i64 -1
  %9 = load i8, ptr %8, align 1, !tbaa !5
  %10 = zext i8 %9 to i32
  %11 = and i32 %10, 7
  switch i32 %11, label %sdslen.exit [
    i32 0, label %12
    i32 1, label %15
    i32 2, label %19
    i32 3, label %23
    i32 4, label %27
  ]

12:                                               ; preds = %4
  %13 = lshr i32 %10, 3
  %14 = zext nneg i32 %13 to i64
  br label %sdslen.exit

15:                                               ; preds = %4
  %16 = getelementptr inbounds i8, ptr %7, i64 -3
  %17 = load i8, ptr %16, align 1, !tbaa !5
  %18 = zext i8 %17 to i64
  br label %sdslen.exit

19:                                               ; preds = %4
  %20 = getelementptr inbounds i8, ptr %7, i64 -5
  %21 = load i16, ptr %20, align 1, !tbaa !42
  %22 = zext i16 %21 to i64
  br label %sdslen.exit

23:                                               ; preds = %4
  %24 = getelementptr inbounds i8, ptr %7, i64 -9
  %25 = load i32, ptr %24, align 1, !tbaa !44
  %26 = zext i32 %25 to i64
  br label %sdslen.exit

27:                                               ; preds = %4
  %28 = getelementptr inbounds i8, ptr %7, i64 -17
  %29 = load i64, ptr %28, align 1, !tbaa !45
  br label %sdslen.exit

sdslen.exit:                                      ; preds = %4, %12, %15, %19, %23, %27
  %.0.i = phi i64 [ %29, %27 ], [ %26, %23 ], [ %22, %19 ], [ %18, %15 ], [ %14, %12 ], [ 0, %4 ]
  %30 = tail call ptr @sdscatlen(ptr noundef %5, ptr noundef nonnull %7, i64 noundef %.0.i) #16
  %31 = tail call ptr @sdscatlen(ptr noundef %30, ptr noundef nonnull @.str.14, i64 noundef 1) #16
  %32 = getelementptr inbounds nuw i8, ptr %2, i64 8
  %33 = load ptr, ptr %32, align 8, !tbaa !64
  %34 = getelementptr inbounds i8, ptr %33, i64 -1
  %35 = load i8, ptr %34, align 1, !tbaa !5
  %36 = zext i8 %35 to i32
  %37 = and i32 %36, 7
  switch i32 %37, label %sdslen.exit34 [
    i32 0, label %38
    i32 1, label %41
    i32 2, label %45
    i32 3, label %49
    i32 4, label %53
  ]

38:                                               ; preds = %sdslen.exit
  %39 = lshr i32 %36, 3
  %40 = zext nneg i32 %39 to i64
  br label %sdslen.exit34

41:                                               ; preds = %sdslen.exit
  %42 = getelementptr inbounds i8, ptr %33, i64 -3
  %43 = load i8, ptr %42, align 1, !tbaa !5
  %44 = zext i8 %43 to i64
  br label %sdslen.exit34

45:                                               ; preds = %sdslen.exit
  %46 = getelementptr inbounds i8, ptr %33, i64 -5
  %47 = load i16, ptr %46, align 1, !tbaa !42
  %48 = zext i16 %47 to i64
  br label %sdslen.exit34

49:                                               ; preds = %sdslen.exit
  %50 = getelementptr inbounds i8, ptr %33, i64 -9
  %51 = load i32, ptr %50, align 1, !tbaa !44
  %52 = zext i32 %51 to i64
  br label %sdslen.exit34

53:                                               ; preds = %sdslen.exit
  %54 = getelementptr inbounds i8, ptr %33, i64 -17
  %55 = load i64, ptr %54, align 1, !tbaa !45
  br label %sdslen.exit34

sdslen.exit34:                                    ; preds = %sdslen.exit, %38, %41, %45, %49, %53
  %.0.i33 = phi i64 [ %55, %53 ], [ %52, %49 ], [ %48, %45 ], [ %44, %41 ], [ %40, %38 ], [ 0, %sdslen.exit ]
  %56 = tail call ptr @sdscatlen(ptr noundef %31, ptr noundef nonnull %33, i64 noundef %.0.i33) #16
  %57 = load ptr, ptr getelementptr inbounds nuw (i8, ptr @server, i64 1848), align 8, !tbaa !74
  %58 = tail call ptr @dictFetchValue(ptr noundef %57, ptr noundef %56) #16
  %.not = icmp eq ptr %58, null
  br i1 %.not, label %62, label %59

59:                                               ; preds = %sdslen.exit34
  tail call void @sdsfree(ptr noundef %56) #16
  %60 = load atomic i64, ptr getelementptr inbounds nuw (i8, ptr @server, i64 7784) seq_cst, align 8, !tbaa !75
  %61 = getelementptr inbounds nuw i8, ptr %58, i64 16
  store i64 %60, ptr %61, align 8, !tbaa !76
  br label %109

62:                                               ; preds = %sdslen.exit34
  %63 = load ptr, ptr getelementptr inbounds nuw (i8, ptr @server, i64 1848), align 8, !tbaa !74
  %64 = getelementptr inbounds nuw i8, ptr %63, i64 24
  %65 = load i64, ptr %64, align 8, !tbaa !45
  %66 = getelementptr inbounds nuw i8, ptr %63, i64 32
  %67 = load i64, ptr %66, align 8, !tbaa !45
  %68 = add i64 %67, %65
  %69 = icmp eq i64 %68, 64
  br i1 %69, label %70, label %80

70:                                               ; preds = %62
  %71 = tail call ptr @dictGetRandomKey(ptr noundef nonnull %63) #16
  %72 = tail call ptr @dictGetVal(ptr noundef %71) #16
  %73 = load ptr, ptr %72, align 8, !tbaa !78
  %74 = load ptr, ptr %73, align 8, !tbaa !79
  %75 = getelementptr inbounds nuw i8, ptr %74, i64 96
  %76 = load ptr, ptr %75, align 8, !tbaa !81
  tail call void %76(ptr noundef nonnull %73) #16
  tail call void @zfree(ptr noundef nonnull %72) #16
  %77 = load ptr, ptr getelementptr inbounds nuw (i8, ptr @server, i64 1848), align 8, !tbaa !74
  %78 = tail call ptr @dictGetKey(ptr noundef %71) #16
  %79 = tail call i32 @dictDelete(ptr noundef %77, ptr noundef %78) #16
  br label %80

80:                                               ; preds = %70, %62
  %81 = load ptr, ptr getelementptr inbounds nuw (i8, ptr @server, i64 88), align 8, !tbaa !83
  %82 = load i32, ptr getelementptr inbounds nuw (i8, ptr @server, i64 8160), align 8, !tbaa !10
  %.not.i = icmp eq i32 %82, 0
  br i1 %.not.i, label %85, label %83

83:                                               ; preds = %80
  %84 = tail call ptr @connectionTypeTls() #16
  br label %connTypeOfCluster.exit

85:                                               ; preds = %80
  %86 = tail call ptr @connectionTypeTcp() #16
  br label %connTypeOfCluster.exit

connTypeOfCluster.exit:                           ; preds = %83, %85
  %.0.i35 = phi ptr [ %84, %83 ], [ %86, %85 ]
  %87 = getelementptr i8, ptr %.0.i35, i64 72
  %.val = load ptr, ptr %87, align 8, !tbaa !84
  %88 = tail call ptr %.val(ptr noundef %81) #16
  %89 = load ptr, ptr %6, align 8, !tbaa !64
  %90 = load ptr, ptr %32, align 8, !tbaa !64
  %91 = tail call i64 @strtol(ptr noundef nonnull captures(none) %90, ptr noundef null, i32 noundef 10) #16
  %92 = trunc i64 %91 to i32
  %93 = load ptr, ptr %88, align 8, !tbaa !79
  %94 = getelementptr inbounds nuw i8, ptr %93, i64 112
  %95 = load ptr, ptr %94, align 8, !tbaa !85
  %96 = tail call i32 %95(ptr noundef nonnull %88, ptr noundef %89, i32 noundef %92, i64 noundef %3) #16
  %.not32 = icmp eq i32 %96, 0
  br i1 %.not32, label %101, label %97

97:                                               ; preds = %connTypeOfCluster.exit
  tail call void @addReplyError(ptr noundef %0, ptr noundef nonnull @.str.15) #16
  %98 = load ptr, ptr %88, align 8, !tbaa !79
  %99 = getelementptr inbounds nuw i8, ptr %98, i64 96
  %100 = load ptr, ptr %99, align 8, !tbaa !81
  tail call void %100(ptr noundef nonnull %88) #16
  tail call void @sdsfree(ptr noundef %56) #16
  br label %109

101:                                              ; preds = %connTypeOfCluster.exit
  %102 = tail call i32 @connEnableTcpNoDelay(ptr noundef nonnull %88) #16
  %103 = tail call noalias dereferenceable_or_null(24) ptr @zmalloc(i64 noundef 24) #19
  store ptr %88, ptr %103, align 8, !tbaa !78
  %104 = getelementptr inbounds nuw i8, ptr %103, i64 8
  store i64 -1, ptr %104, align 8, !tbaa !86
  %105 = load atomic i64, ptr getelementptr inbounds nuw (i8, ptr @server, i64 7784) seq_cst, align 8, !tbaa !75
  %106 = getelementptr inbounds nuw i8, ptr %103, i64 16
  store i64 %105, ptr %106, align 8, !tbaa !76
  %107 = load ptr, ptr getelementptr inbounds nuw (i8, ptr @server, i64 1848), align 8, !tbaa !74
  %108 = tail call i32 @dictAdd(ptr noundef %107, ptr noundef %56, ptr noundef nonnull %103) #16
  br label %109

109:                                              ; preds = %101, %97, %59
  %.0 = phi ptr [ %58, %59 ], [ null, %97 ], [ %103, %101 ]
  ret ptr %.0
}